; Function Attrs: mustprogress uwtable
define void @_Z20DetectPlayDuplicatesRK6boardsRSt6vectorIiSaIiEES5_(ptr nocapture noundef nonnull readonly align 4 dereferenceable(21604) %0, ptr noundef nonnull align 8 dereferenceable(24) %1, ptr noundef nonnull align 8 dereferenceable(24) %2) local_unnamed_addr #3 personality ptr @__gxx_personality_v0 {
  %4 = load i32, ptr %0, align 4
  %5 = zext i32 %4 to i64
  %6 = getelementptr inbounds nuw i8, ptr %1, i64 8
  %7 = load ptr, ptr %6, align 8
  %8 = load ptr, ptr %1, align 8
  %9 = ptrtoint ptr %7 to i64
  %10 = ptrtoint ptr %8 to i64
  %11 = sub i64 %9, %10
  %12 = ashr exact i64 %11, 2
  %13 = icmp ult i64 %12, %5
  br i1 %13, label %14, label %16

14:                                               ; preds = %3
  %15 = sub nuw nsw i64 %5, %12
  tail call void @_ZNSt6vectorIiSaIiEE17_M_default_appendEm(ptr noundef nonnull align 8 dereferenceable(24) %1, i64 noundef %15)
  br label %_ZNSt6vectorIiSaIiEE6resizeEm.exit

16:                                               ; preds = %3
  %17 = icmp ugt i64 %12, %5
  br i1 %17, label %18, label %_ZNSt6vectorIiSaIiEE6resizeEm.exit

18:                                               ; preds = %16
  %19 = getelementptr inbounds i32, ptr %8, i64 %5
  %.not.i.i = icmp eq ptr %7, %19
  br i1 %.not.i.i, label %_ZNSt6vectorIiSaIiEE6resizeEm.exit, label %20

20:                                               ; preds = %18
  store ptr %19, ptr %6, align 8
  br label %_ZNSt6vectorIiSaIiEE6resizeEm.exit

_ZNSt6vectorIiSaIiEE6resizeEm.exit:               ; preds = %14, %16, %18, %20
  %21 = load i32, ptr %0, align 4
  %22 = zext i32 %21 to i64
  %23 = getelementptr inbounds nuw i8, ptr %2, i64 8
  %24 = load ptr, ptr %23, align 8
  %25 = load ptr, ptr %2, align 8
  %26 = ptrtoint ptr %24 to i64
  %27 = ptrtoint ptr %25 to i64
  %28 = sub i64 %26, %27
  %29 = ashr exact i64 %28, 2
  %30 = icmp ult i64 %29, %22
  br i1 %30, label %31, label %33

31:                                               ; preds = %_ZNSt6vectorIiSaIiEE6resizeEm.exit
  %32 = sub nuw nsw i64 %22, %29
  tail call void @_ZNSt6vectorIiSaIiEE17_M_default_appendEm(ptr noundef nonnull align 8 dereferenceable(24) %2, i64 noundef %32)
  br label %_ZNSt6vectorIiSaIiEE6resizeEm.exit13

33:                                               ; preds = %_ZNSt6vectorIiSaIiEE6resizeEm.exit
  %34 = icmp ugt i64 %29, %22
  br i1 %34, label %35, label %_ZNSt6vectorIiSaIiEE6resizeEm.exit13

35:                                               ; preds = %33
  %36 = getelementptr inbounds i32, ptr %25, i64 %22
  %.not.i.i12 = icmp eq ptr %24, %36
  br i1 %.not.i.i12, label %_ZNSt6vectorIiSaIiEE6resizeEm.exit13, label %37

37:                                               ; preds = %35
  store ptr %36, ptr %23, align 8
  br label %_ZNSt6vectorIiSaIiEE6resizeEm.exit13

_ZNSt6vectorIiSaIiEE6resizeEm.exit13:             ; preds = %31, %33, %35, %37
  %38 = load ptr, ptr %6, align 8
  %39 = load ptr, ptr %1, align 8
  %.not = icmp eq ptr %38, %39
  br i1 %.not, label %._crit_edge, label %.lr.ph

.lr.ph:                                           ; preds = %_ZNSt6vectorIiSaIiEE6resizeEm.exit13, %.lr.ph
  %40 = phi ptr [ %48, %.lr.ph ], [ %39, %_ZNSt6vectorIiSaIiEE6resizeEm.exit13 ]
  %41 = phi i64 [ %46, %.lr.ph ], [ 0, %_ZNSt6vectorIiSaIiEE6resizeEm.exit13 ]
  %.014 = phi i32 [ %45, %.lr.ph ], [ 0, %_ZNSt6vectorIiSaIiEE6resizeEm.exit13 ]
  %42 = getelementptr inbounds i32, ptr %40, i64 %41
  store i32 %.014, ptr %42, align 4
  %43 = load ptr, ptr %2, align 8
  %44 = getelementptr inbounds i32, ptr %43, i64 %41
  store i32 -1, ptr %44, align 4
  %45 = add i32 %.014, 1
  %46 = zext i32 %45 to i64
  %47 = load ptr, ptr %6, align 8
  %48 = load ptr, ptr %1, align 8
  %49 = ptrtoint ptr %47 to i64
  %50 = ptrtoint ptr %48 to i64
  %51 = sub i64 %49, %50
  %52 = ashr exact i64 %51, 2
  %53 = icmp ugt i64 %52, %46
  br i1 %53, label %.lr.ph, label %._crit_edge, !llvm.loop !11

._crit_edge:                                      ; preds = %.lr.ph, %_ZNSt6vectorIiSaIiEE6resizeEm.exit13
  ret void
}